CCS PCM C Compiler, Version 4.023, 11770               01-dic-10 23:24

               Filename: C:\Users\JuanCqr\Documents\Usco\Matlab\Proyecto Final\_adc3.lst

               ROM used: 1206 words (15%)
                         Largest free fragment is 2048
               RAM used: 22 (6%) at main() level
                         45 (12%) worst case
               Stack:    4 locations

*
0000:  MOVLW  00
0001:  MOVWF  0A
0002:  GOTO   3D9
0003:  NOP
.................... #include <16F877a.h> 
.................... //////// Standard Header file for the PIC16F877A device //////////////// 
.................... #device PIC16F877A 
.................... #list 
....................  
.................... #fuses XT,NOWDT,NOPROTECT 
.................... #use delay(clock=4000000) 
*
0030:  MOVLW  3B
0031:  MOVWF  04
0032:  BCF    03.7
0033:  MOVF   00,W
0034:  BTFSC  03.2
0035:  GOTO   044
0036:  MOVLW  01
0037:  MOVWF  78
0038:  CLRF   77
0039:  DECFSZ 77,F
003A:  GOTO   039
003B:  DECFSZ 78,F
003C:  GOTO   038
003D:  MOVLW  4A
003E:  MOVWF  77
003F:  DECFSZ 77,F
0040:  GOTO   03F
0041:  GOTO   042
0042:  DECFSZ 00,F
0043:  GOTO   036
0044:  RETLW  00
.................... #use rs232 (BAUD=9600 , XMIT=PIN_C6 , RCV=PIN_C7 , BITS=8) 
.................... #include <lcd.c> 
.................... /////////////////////////////////////////////////////////////////////////// 
.................... ////                             LCDD.C                                //// 
.................... ////                 Driver for common LCD modules                     //// 
.................... ////                                                                   //// 
.................... ////  lcd_init()   Must be called before any other function.           //// 
.................... ////                                                                   //// 
.................... ////  lcd_putc(c)  Will display c on the next position of the LCD.     //// 
.................... ////                     The following have special meaning:           //// 
.................... ////                      \f  Clear display                            //// 
.................... ////                      \n  Go to start of second line               //// 
.................... ////                      \b  Move back one position                   //// 
.................... ////                                                                   //// 
.................... ////  lcd_gotoxy(x,y) Set write position on LCD (upper left is 1,1)    //// 
.................... ////                                                                   //// 
.................... ////  lcd_getc(x,y)   Returns character at position x,y on LCD         //// 
.................... ////                                                                   //// 
.................... /////////////////////////////////////////////////////////////////////////// 
.................... ////        (C) Copyright 1996,2003 Custom Computer Services           //// 
.................... //// This source code may only be used by licensed users of the CCS C  //// 
.................... //// compiler.  This source code may only be distributed to other      //// 
.................... //// licensed users of the CCS C compiler.  No other use, reproduction //// 
.................... //// or distribution is permitted without written permission.          //// 
.................... //// Derivative programs created using this software in object code    //// 
.................... //// form are not restricted in any way.                               //// 
.................... /////////////////////////////////////////////////////////////////////////// 
....................  
.................... // As defined in the following structure the pin connection is as follows: 
.................... //     D0  enable 
.................... //     D1  rs 
.................... //     D2  rw 
.................... //     D4  D4 
.................... //     D5  D5 
.................... //     D6  D6 
.................... //     D7  D7 
.................... // 
.................... //   LCD pins D0-D3 are not used and PIC D3 is not used. 
....................  
.................... // Un-comment the following define to use port B 
....................  #define use_portb_lcd TRUE 
....................  
....................  
.................... struct lcd_pin_map {                 // This structure is overlayed 
....................            BOOLEAN enable;           // on to an I/O port to gain 
....................            BOOLEAN rs;               // access to the LCD pins. 
....................            BOOLEAN rw;               // The bits are allocated from 
....................            BOOLEAN unused;           // low order up.  ENABLE will 
....................            int     data : 4;         // be pin B0. 
....................         } lcd; 
....................  
....................  
.................... #if defined use_portb_lcd 
....................    #locate lcd = getenv("sfr:PORTB")    // This puts the entire structure over the port 
....................    #define set_tris_lcd(x) set_tris_b(x) 
.................... #else 
....................    #locate lcd = getenv("sfr:PORTD")    // This puts the entire structure over the port 
....................    #define set_tris_lcd(x) set_tris_d(x) 
.................... #endif 
....................  
....................  
.................... #define lcd_type 2           // 0=5x7, 1=5x10, 2=2 lines 
.................... #define lcd_line_two 0x40    // LCD RAM address for the second line 
....................  
....................  
.................... BYTE const LCD_INIT_STRING[4] = {0x20 | (lcd_type << 2), 0xc, 1, 6}; 
....................                              // These bytes need to be sent to the LCD 
....................                              // to start it up. 
....................  
....................  
....................                              // The following are used for setting 
....................                              // the I/O port direction register. 
....................  
.................... struct lcd_pin_map const LCD_WRITE = {0,0,0,0,0}; // For write mode all pins are out 
.................... struct lcd_pin_map const LCD_READ = {0,0,0,0,15}; // For read mode data pins are in 
....................  
....................  
....................  
.................... BYTE lcd_read_byte() { 
....................       BYTE low,high; 
....................       set_tris_lcd(LCD_READ); 
*
0052:  MOVLW  F0
0053:  BSF    03.5
0054:  MOVWF  06
....................       lcd.rw = 1; 
0055:  BCF    03.5
0056:  BSF    06.2
....................       delay_cycles(1); 
0057:  NOP
....................       lcd.enable = 1; 
0058:  BSF    06.0
....................       delay_cycles(1); 
0059:  NOP
....................       high = lcd.data; 
005A:  MOVF   06,W
005B:  SWAPF  06,W
005C:  ANDLW  0F
005D:  MOVWF  42
....................       lcd.enable = 0; 
005E:  BCF    06.0
....................       delay_cycles(1); 
005F:  NOP
....................       lcd.enable = 1; 
0060:  BSF    06.0
....................       delay_us(1); 
0061:  NOP
....................       low = lcd.data; 
0062:  MOVF   06,W
0063:  SWAPF  06,W
0064:  ANDLW  0F
0065:  MOVWF  41
....................       lcd.enable = 0; 
0066:  BCF    06.0
....................       set_tris_lcd(LCD_WRITE); 
0067:  MOVLW  00
0068:  BSF    03.5
0069:  MOVWF  06
....................       return( (high<<4) | low); 
006A:  BCF    03.5
006B:  SWAPF  42,W
006C:  MOVWF  77
006D:  MOVLW  F0
006E:  ANDWF  77,F
006F:  MOVF   77,W
0070:  IORWF  41,W
0071:  MOVWF  78
.................... } 
....................  
....................  
.................... void lcd_send_nibble( BYTE n ) { 
....................       lcd.data = n; 
*
0045:  SWAPF  42,W
0046:  ANDLW  F0
0047:  MOVWF  77
0048:  MOVLW  0F
0049:  ANDWF  06,W
004A:  IORWF  77,W
004B:  MOVWF  06
....................       delay_cycles(1); 
004C:  NOP
....................       lcd.enable = 1; 
004D:  BSF    06.0
....................       delay_us(2); 
004E:  GOTO   04F
....................       lcd.enable = 0; 
004F:  BCF    06.0
.................... } 
0050:  RETLW  00
....................  
....................  
.................... void lcd_send_byte( BYTE address, BYTE n ) { 
....................  
....................       lcd.rs = 0; 
0051:  BCF    06.1
....................       while ( bit_test(lcd_read_byte(),7) ) ; 
*
0072:  MOVF   78,W
0073:  MOVWF  41
0074:  BTFSC  41.7
0075:  GOTO   052
....................       lcd.rs = address; 
0076:  BTFSS  3F.0
0077:  BCF    06.1
0078:  BTFSC  3F.0
0079:  BSF    06.1
....................       delay_cycles(1); 
007A:  NOP
....................       lcd.rw = 0; 
007B:  BCF    06.2
....................       delay_cycles(1); 
007C:  NOP
....................       lcd.enable = 0; 
007D:  BCF    06.0
....................       lcd_send_nibble(n >> 4); 
007E:  SWAPF  40,W
007F:  MOVWF  41
0080:  MOVLW  0F
0081:  ANDWF  41,F
0082:  MOVF   41,W
0083:  MOVWF  42
0084:  CALL   045
....................       lcd_send_nibble(n & 0xf); 
0085:  MOVF   40,W
0086:  ANDLW  0F
0087:  MOVWF  41
0088:  MOVWF  42
0089:  CALL   045
.................... } 
008A:  RETLW  00
....................  
....................  
.................... void lcd_init() { 
....................     BYTE i; 
....................     set_tris_lcd(LCD_WRITE); 
008B:  MOVLW  00
008C:  BSF    03.5
008D:  MOVWF  06
....................     lcd.rs = 0; 
008E:  BCF    03.5
008F:  BCF    06.1
....................     lcd.rw = 0; 
0090:  BCF    06.2
....................     lcd.enable = 0; 
0091:  BCF    06.0
....................     delay_ms(15); 
0092:  MOVLW  0F
0093:  MOVWF  3B
0094:  CALL   030
....................     for(i=1;i<=3;++i) { 
0095:  MOVLW  01
0096:  MOVWF  2C
0097:  MOVF   2C,W
0098:  SUBLW  03
0099:  BTFSS  03.0
009A:  GOTO   0A3
....................        lcd_send_nibble(3); 
009B:  MOVLW  03
009C:  MOVWF  42
009D:  CALL   045
....................        delay_ms(5); 
009E:  MOVLW  05
009F:  MOVWF  3B
00A0:  CALL   030
....................     } 
00A1:  INCF   2C,F
00A2:  GOTO   097
....................     lcd_send_nibble(2); 
00A3:  MOVLW  02
00A4:  MOVWF  42
00A5:  CALL   045
....................     for(i=0;i<=3;++i) 
00A6:  CLRF   2C
00A7:  MOVF   2C,W
00A8:  SUBLW  03
00A9:  BTFSS  03.0
00AA:  GOTO   0B4
....................        lcd_send_byte(0,LCD_INIT_STRING[i]); 
00AB:  MOVF   2C,W
00AC:  CALL   004
00AD:  MOVWF  2D
00AE:  CLRF   3F
00AF:  MOVF   2D,W
00B0:  MOVWF  40
00B1:  CALL   051
00B2:  INCF   2C,F
00B3:  GOTO   0A7
.................... } 
00B4:  BCF    0A.3
00B5:  BCF    0A.4
00B6:  GOTO   3FA (RETURN)
....................  
....................  
.................... void lcd_gotoxy( BYTE x, BYTE y) { 
....................    BYTE address; 
....................  
....................    if(y!=1) 
*
026D:  DECFSZ 3C,W
026E:  GOTO   270
026F:  GOTO   273
....................      address=lcd_line_two; 
0270:  MOVLW  40
0271:  MOVWF  3D
....................    else 
0272:  GOTO   274
....................      address=0; 
0273:  CLRF   3D
....................    address+=x-1; 
0274:  MOVLW  01
0275:  SUBWF  3B,W
0276:  ADDWF  3D,F
....................    lcd_send_byte(0,0x80|address); 
0277:  MOVF   3D,W
0278:  IORLW  80
0279:  MOVWF  3E
027A:  CLRF   3F
027B:  MOVF   3E,W
027C:  MOVWF  40
027D:  CALL   051
.................... } 
....................  
.................... void lcd_putc( char c) { 
....................    switch (c) { 
*
0256:  MOVF   3A,W
0257:  XORLW  0C
0258:  BTFSC  03.2
0259:  GOTO   261
025A:  XORLW  06
025B:  BTFSC  03.2
025C:  GOTO   269
025D:  XORLW  02
025E:  BTFSC  03.2
025F:  GOTO   27F
0260:  GOTO   284
....................      case '\f'   : lcd_send_byte(0,1); 
0261:  CLRF   3F
0262:  MOVLW  01
0263:  MOVWF  40
0264:  CALL   051
....................                    delay_ms(2); 
0265:  MOVLW  02
0266:  MOVWF  3B
0267:  CALL   030
....................                                            break; 
0268:  GOTO   28A
....................      case '\n'   : lcd_gotoxy(1,2);        break; 
0269:  MOVLW  01
026A:  MOVWF  3B
026B:  MOVLW  02
026C:  MOVWF  3C
*
027E:  GOTO   28A
....................      case '\b'   : lcd_send_byte(0,0x10);  break; 
027F:  CLRF   3F
0280:  MOVLW  10
0281:  MOVWF  40
0282:  CALL   051
0283:  GOTO   28A
....................      default     : lcd_send_byte(1,c);     break; 
0284:  MOVLW  01
0285:  MOVWF  3F
0286:  MOVF   3A,W
0287:  MOVWF  40
0288:  CALL   051
0289:  GOTO   28A
....................    } 
.................... } 
028A:  RETLW  00
....................  
.................... char lcd_getc( BYTE x, BYTE y) { 
....................    char value; 
....................  
....................     lcd_gotoxy(x,y); 
....................     while ( bit_test(lcd_read_byte(),7) ); // wait until busy flag is low 
....................     lcd.rs=1; 
....................     value = lcd_read_byte(); 
....................     lcd.rs=0; 
....................     return(value); 
.................... } 
....................  
.................... double dato1=0,temp=0; 
*
03EC:  BCF    03.5
03ED:  CLRF   20
03EE:  CLRF   21
03EF:  CLRF   22
03F0:  CLRF   23
03F1:  CLRF   24
03F2:  CLRF   25
03F3:  CLRF   26
03F4:  CLRF   27
.................... int enviar1=0,tipo=0,band=0,band1=0; 
03F5:  CLRF   28
03F6:  CLRF   29
03F7:  CLRF   2A
03F8:  CLRF   2B
....................  
....................  
.................... void main()  
.................... { lcd_init(); 
*
03D9:  CLRF   04
03DA:  BCF    03.7
03DB:  MOVLW  1F
03DC:  ANDWF  03,F
03DD:  MOVLW  19
03DE:  BSF    03.5
03DF:  MOVWF  19
03E0:  MOVLW  A6
03E1:  MOVWF  18
03E2:  MOVLW  90
03E3:  BCF    03.5
03E4:  MOVWF  18
03E5:  BSF    03.5
03E6:  BSF    1F.0
03E7:  BSF    1F.1
03E8:  BSF    1F.2
03E9:  BCF    1F.3
03EA:  MOVLW  07
03EB:  MOVWF  1C
*
03F9:  GOTO   08B
....................   DELAY_MS(10); 
03FA:  MOVLW  0A
03FB:  MOVWF  3B
03FC:  CALL   030
....................   SETUP_ADC(ADC_CLOCK_INTERNAL);      
03FD:  BSF    03.5
03FE:  BCF    1F.6
03FF:  BCF    03.5
0400:  BSF    1F.6
0401:  BSF    1F.7
0402:  BSF    03.5
0403:  BCF    1F.7
0404:  BCF    03.5
0405:  BSF    1F.0
....................   SETUP_ADC_PORTS(ALL_ANALOG);           
0406:  BSF    03.5
0407:  BCF    1F.0
0408:  BCF    1F.1
0409:  BCF    1F.2
040A:  BCF    1F.3
....................   SET_ADC_CHANNEL(0);  
040B:  MOVLW  00
040C:  MOVWF  78
040D:  BCF    03.5
040E:  MOVF   1F,W
040F:  ANDLW  C7
0410:  IORWF  78,W
0411:  MOVWF  1F
....................   DELAY_MS(10); 
0412:  MOVLW  0A
0413:  MOVWF  3B
0414:  CALL   030
....................       
....................   while(true) 
....................    { dato1=READ_ADC();  
0415:  BSF    1F.2
0416:  BTFSC  1F.2
0417:  GOTO   416
0418:  MOVF   1E,W
0419:  CLRF   2D
041A:  MOVWF  2C
041B:  CALL   0B7
041C:  MOVF   7A,W
041D:  MOVWF  23
041E:  MOVF   79,W
041F:  MOVWF  22
0420:  MOVF   78,W
0421:  MOVWF  21
0422:  MOVF   77,W
0423:  MOVWF  20
....................      DELAY_MS(20); 
0424:  MOVLW  14
0425:  MOVWF  3B
0426:  CALL   030
....................      temp=dato1/255*100;        
0427:  MOVF   23,W
0428:  MOVWF  2F
0429:  MOVF   22,W
042A:  MOVWF  2E
042B:  MOVF   21,W
042C:  MOVWF  2D
042D:  MOVF   20,W
042E:  MOVWF  2C
042F:  CLRF   33
0430:  CLRF   32
0431:  MOVLW  7F
0432:  MOVWF  31
0433:  MOVLW  86
0434:  MOVWF  30
0435:  GOTO   0D4
0436:  MOVF   77,W
0437:  MOVWF  2C
0438:  MOVF   78,W
0439:  MOVWF  2D
043A:  MOVF   79,W
043B:  MOVWF  2E
043C:  MOVF   7A,W
043D:  MOVWF  2F
043E:  MOVWF  3D
043F:  MOVF   79,W
0440:  MOVWF  3C
0441:  MOVF   78,W
0442:  MOVWF  3B
0443:  MOVF   77,W
0444:  MOVWF  3A
0445:  CLRF   41
0446:  CLRF   40
0447:  MOVLW  48
0448:  MOVWF  3F
0449:  MOVLW  85
044A:  MOVWF  3E
044B:  CALL   1A0
044C:  MOVF   7A,W
044D:  MOVWF  27
044E:  MOVF   79,W
044F:  MOVWF  26
0450:  MOVF   78,W
0451:  MOVWF  25
0452:  MOVF   77,W
0453:  MOVWF  24
....................      if(band1!=dato1) 
0454:  CLRF   2D
0455:  MOVF   2B,W
0456:  MOVWF  2C
0457:  CALL   0B7
0458:  MOVF   7A,W
0459:  MOVWF  2F
045A:  MOVF   79,W
045B:  MOVWF  2E
045C:  MOVF   78,W
045D:  MOVWF  2D
045E:  MOVF   77,W
045F:  MOVWF  2C
0460:  MOVF   23,W
0461:  MOVWF  33
0462:  MOVF   22,W
0463:  MOVWF  32
0464:  MOVF   21,W
0465:  MOVWF  31
0466:  MOVF   20,W
0467:  MOVWF  30
0468:  GOTO   215
0469:  BTFSC  03.2
046A:  GOTO   48F
....................       { printf(lcd_putc , "\f Temp: %1.1f°C\n Juan Cerquera." ,temp);} 
046B:  CLRF   2C
046C:  MOVF   2C,W
046D:  CALL   00C
046E:  INCF   2C,F
046F:  MOVWF  77
0470:  MOVWF  3A
0471:  CALL   256
0472:  MOVLW  08
0473:  SUBWF  2C,W
0474:  BTFSS  03.2
0475:  GOTO   46C
0476:  MOVLW  89
0477:  MOVWF  04
0478:  MOVF   27,W
0479:  MOVWF  30
047A:  MOVF   26,W
047B:  MOVWF  2F
047C:  MOVF   25,W
047D:  MOVWF  2E
047E:  MOVF   24,W
047F:  MOVWF  2D
0480:  MOVLW  01
0481:  MOVWF  31
0482:  GOTO   2EE
0483:  MOVLW  0D
0484:  MOVWF  2D
0485:  MOVF   2D,W
0486:  CALL   00C
0487:  INCF   2D,F
0488:  MOVWF  77
0489:  MOVWF  3A
048A:  CALL   256
048B:  MOVLW  1F
048C:  SUBWF  2D,W
048D:  BTFSS  03.2
048E:  GOTO   485
....................      band1=dato1; 
048F:  MOVF   23,W
0490:  MOVWF  2F
0491:  MOVF   22,W
0492:  MOVWF  2E
0493:  MOVF   21,W
0494:  MOVWF  2D
0495:  MOVF   20,W
0496:  MOVWF  2C
0497:  CALL   3BA
0498:  MOVF   78,W
0499:  MOVWF  2B
....................  
....................  
....................      band = kbhit(); 
049A:  CLRF   2A
049B:  BTFSC  0C.5
049C:  INCF   2A,F
....................      if(band==1) 
049D:  DECFSZ 2A,W
049E:  GOTO   4A3
....................       { tipo=getc(); 
049F:  BTFSS  0C.5
04A0:  GOTO   49F
04A1:  MOVF   1A,W
04A2:  MOVWF  29
....................       } 
....................  
....................      if(tipo==1) 
04A3:  DECFSZ 29,W
04A4:  GOTO   4B4
....................      { enviar1=dato1; 
04A5:  MOVF   23,W
04A6:  MOVWF  2F
04A7:  MOVF   22,W
04A8:  MOVWF  2E
04A9:  MOVF   21,W
04AA:  MOVWF  2D
04AB:  MOVF   20,W
04AC:  MOVWF  2C
04AD:  CALL   3BA
04AE:  MOVF   78,W
04AF:  MOVWF  28
....................        putc(enviar1); 
04B0:  MOVF   28,W
04B1:  BTFSS  0C.4
04B2:  GOTO   4B1
04B3:  MOVWF  19
....................      }      
....................    } 
04B4:  GOTO   415
.................... } 
....................  
....................  
04B5:  SLEEP

Configuration Fuses:
   Word  1: 3F71   XT NOWDT PUT NODEBUG NOPROTECT BROWNOUT NOLVP NOCPD NOWRT
